target datalayout = "e-m:e-p270:32:32-p271:32:32-p272:64:64-i64:64-i128:128-f80:128-n8:16:32:64-S128"
target triple = "x86_64-unknown-linux-gnu"

%"class.std::__cxx11::basic_string" = type { %"struct.std::__cxx11::basic_string<char>::_Alloc_hider", i64, %union.anon }
%"struct.std::__cxx11::basic_string<char>::_Alloc_hider" = type { ptr }
%union.anon = type { i64, [8 x i8] }
%"class.Assimp::FBX::Object" = type { ptr, ptr, %"class.std::__cxx11::basic_string", i64 }

@_ZTVN6Assimp3FBX6ObjectE = linkonce_odr hidden unnamed_addr constant { [4 x ptr] } { [4 x ptr] [ptr null, ptr @_ZTIN6Assimp3FBX6ObjectE, ptr @_ZN6Assimp3FBX6ObjectD2Ev, ptr @_ZN6Assimp3FBX6ObjectD0Ev] }, comdat, align 8

; Function Attrs: mustprogress uwtable
define hidden void @_ZN6Assimp3FBX6ObjectC2EmRKNS0_7ElementERKNSt7__cxx1112basic_stringIcSt11char_traitsIcESaIcEEE(ptr noundef nonnull align 8 dereferenceable(56) %this, i64 noundef %id, ptr noundef nonnull align 8 dereferenceable(40) %element, ptr noundef nonnull align 8 dereferenceable(32) %name) unnamed_addr #2 align 2 {
entry:
  %this.addr = alloca ptr, align 8
  %id.addr = alloca i64, align 8
  %element.addr = alloca ptr, align 8
  %name.addr = alloca ptr, align 8
  store ptr %this, ptr %this.addr, align 8
  store i64 %id, ptr %id.addr, align 8
  store ptr %element, ptr %element.addr, align 8
  store ptr %name, ptr %name.addr, align 8
  %this1 = load ptr, ptr %this.addr, align 8
  store ptr getelementptr inbounds ({ [4 x ptr] }, ptr @_ZTVN6Assimp3FBX6ObjectE, i32 0, i32 0, i32 2), ptr %this1, align 8
  %element2 = getelementptr inbounds %"class.Assimp::FBX::Object", ptr %this1, i32 0, i32 1
  %0 = load ptr, ptr %element.addr, align 8
  store ptr %0, ptr %element2, align 8
  %name3 = getelementptr inbounds %"class.Assimp::FBX::Object", ptr %this1, i32 0, i32 2
  %1 = load ptr, ptr %name.addr, align 8
  call void @_ZNSt7__cxx1112basic_stringIcSt11char_traitsIcESaIcEEC1ERKS4_(ptr noundef nonnull align 8 dereferenceable(32) %name3, ptr noundef nonnull align 8 dereferenceable(32) %1)
  %id4 = getelementptr inbounds %"class.Assimp::FBX::Object", ptr %this1, i32 0, i32 3
  %2 = load i64, ptr %id.addr, align 8
  store i64 %2, ptr %id4, align 8
  ret void
}