; Function Attrs: mustprogress uwtable
define hidden void @_ZN6Assimp3FBX6ObjectC2EmRKNS0_7ElementERKNSt7__cxx1112basic_stringIcSt11char_traitsIcESaIcEEE(ptr noundef nonnull align 8 dereferenceable(56) %this, i64 noundef %id, ptr noundef nonnull align 8 dereferenceable(40) %element, ptr noundef nonnull align 8 dereferenceable(32) %name) unnamed_addr #1 align 2 {
entry:
  store ptr getelementptr inbounds ({ [4 x ptr] }, ptr @_ZTVN6Assimp3FBX6ObjectE, i64 0, i32 0, i64 2), ptr %this, align 8
  %element2 = getelementptr inbounds i8, ptr %this, i64 8
  store ptr %element, ptr %element2, align 8
  %name3 = getelementptr inbounds i8, ptr %this, i64 16
  tail call void @_ZNSt7__cxx1112basic_stringIcSt11char_traitsIcESaIcEEC1ERKS4_(ptr noundef nonnull align 8 dereferenceable(32) %name3, ptr noundef nonnull align 8 dereferenceable(32) %name)
  %id4 = getelementptr inbounds i8, ptr %this, i64 48
  store i64 %id, ptr %id4, align 8
  ret void
}